; Function Attrs: mustprogress uwtable
define dso_local noundef i32 @_ZN4absl13base_internal12SpinLockWaitEPSt6atomicIjEiPKNS0_22SpinLockWaitTransitionENS0_14SchedulingModeE(ptr noundef %0, i32 noundef %1, ptr noundef readonly captures(none) %2, i32 noundef %3) local_unnamed_addr #0 personality ptr @__gxx_personality_v0 {
  %.not37 = icmp eq i32 %1, 0
  br i1 %.not37, label %_ZNSt13__atomic_baseIjE23compare_exchange_strongERjjSt12memory_orderS2_.exit.outer32.us, label %_ZNSt13__atomic_baseIjE23compare_exchange_strongERjjSt12memory_orderS2_.exit.outer.preheader

_ZNSt13__atomic_baseIjE23compare_exchange_strongERjjSt12memory_orderS2_.exit.outer.preheader: ; preds = %4
  %5 = zext i32 %1 to i64
  br label %_ZNSt13__atomic_baseIjE23compare_exchange_strongERjjSt12memory_orderS2_.exit.outer32.outer

_ZNSt13__atomic_baseIjE23compare_exchange_strongERjjSt12memory_orderS2_.exit.outer32.us: ; preds = %4, %_ZNSt13__atomic_baseIjE23compare_exchange_strongERjjSt12memory_orderS2_.exit.outer32.us
  %.020.ph33.us = phi i32 [ %7, %_ZNSt13__atomic_baseIjE23compare_exchange_strongERjjSt12memory_orderS2_.exit.outer32.us ], [ 0, %4 ]
  %6 = load atomic i32, ptr %0 acquire, align 4
  %7 = add nuw nsw i32 %.020.ph33.us, 1
  tail call void @AbslInternalSpinLockDelay(ptr noundef nonnull %0, i32 noundef %6, i32 noundef %7, i32 noundef %3)
  br label %_ZNSt13__atomic_baseIjE23compare_exchange_strongERjjSt12memory_orderS2_.exit.outer32.us, !llvm.loop !8

_ZNSt13__atomic_baseIjE23compare_exchange_strongERjjSt12memory_orderS2_.exit.outer32: ; preds = %_ZNSt13__atomic_baseIjE23compare_exchange_strongERjjSt12memory_orderS2_.exit.outer32.outer, %_ZNSt13__atomic_baseIjE23compare_exchange_strongERjjSt12memory_orderS2_.exit.thread
  br label %_ZNSt13__atomic_baseIjE23compare_exchange_strongERjjSt12memory_orderS2_.exit

_ZNSt13__atomic_baseIjE23compare_exchange_strongERjjSt12memory_orderS2_.exit: ; preds = %_ZNSt13__atomic_baseIjE23compare_exchange_strongERjjSt12memory_orderS2_.exit.outer32, %19
  %8 = load atomic i32, ptr %0 acquire, align 4
  br label %9

9:                                                ; preds = %_ZNSt13__atomic_baseIjE23compare_exchange_strongERjjSt12memory_orderS2_.exit, %12
  %indvars.iv = phi i64 [ 0, %_ZNSt13__atomic_baseIjE23compare_exchange_strongERjjSt12memory_orderS2_.exit ], [ %indvars.iv.next, %12 ]
  %10 = getelementptr inbounds nuw %"struct.absl::base_internal::SpinLockWaitTransition", ptr %2, i64 %indvars.iv
  %11 = load i32, ptr %10, align 4, !tbaa !10
  %.not24 = icmp eq i32 %8, %11
  br i1 %.not24, label %.critedge, label %12

12:                                               ; preds = %9
  %indvars.iv.next = add nuw nsw i64 %indvars.iv, 1
  %.not = icmp eq i64 %indvars.iv.next, %5
  br i1 %.not, label %._crit_edge, label %9, !llvm.loop !13

._crit_edge:                                      ; preds = %12
  %13 = add nuw nsw i32 %.020.ph33.ph, 1
  tail call void @AbslInternalSpinLockDelay(ptr noundef nonnull %0, i32 noundef %8, i32 noundef %13, i32 noundef %3)
  br label %_ZNSt13__atomic_baseIjE23compare_exchange_strongERjjSt12memory_orderS2_.exit.outer32.outer, !llvm.loop !8

_ZNSt13__atomic_baseIjE23compare_exchange_strongERjjSt12memory_orderS2_.exit.outer32.outer: ; preds = %_ZNSt13__atomic_baseIjE23compare_exchange_strongERjjSt12memory_orderS2_.exit.outer.preheader, %._crit_edge
  %.020.ph33.ph = phi i32 [ 0, %_ZNSt13__atomic_baseIjE23compare_exchange_strongERjjSt12memory_orderS2_.exit.outer.preheader ], [ %13, %._crit_edge ]
  br label %_ZNSt13__atomic_baseIjE23compare_exchange_strongERjjSt12memory_orderS2_.exit.outer32

.critedge:                                        ; preds = %9
  %14 = and i64 %indvars.iv, 4294967295
  %15 = getelementptr inbounds nuw %"struct.absl::base_internal::SpinLockWaitTransition", ptr %2, i64 %14
  %16 = getelementptr inbounds nuw i8, ptr %15, i64 4
  %17 = load i32, ptr %16, align 4, !tbaa !14
  %18 = icmp eq i32 %17, %8
  br i1 %18, label %_ZNSt13__atomic_baseIjE23compare_exchange_strongERjjSt12memory_orderS2_.exit.thread, label %19

19:                                               ; preds = %.critedge
  %20 = cmpxchg ptr %0, i32 %8, i32 %17 acquire monotonic, align 4
  %21 = extractvalue { i32, i1 } %20, 1
  br i1 %21, label %_ZNSt13__atomic_baseIjE23compare_exchange_strongERjjSt12memory_orderS2_.exit.thread, label %_ZNSt13__atomic_baseIjE23compare_exchange_strongERjjSt12memory_orderS2_.exit, !llvm.loop !8

_ZNSt13__atomic_baseIjE23compare_exchange_strongERjjSt12memory_orderS2_.exit.thread: ; preds = %19, %.critedge
  %22 = getelementptr inbounds nuw i8, ptr %15, i64 8
  %23 = load i8, ptr %22, align 4, !tbaa !15, !range !16, !noundef !17
  %24 = trunc nuw i8 %23 to i1
  br i1 %24, label %25, label %_ZNSt13__atomic_baseIjE23compare_exchange_strongERjjSt12memory_orderS2_.exit.outer32, !llvm.loop !8

25:                                               ; preds = %_ZNSt13__atomic_baseIjE23compare_exchange_strongERjjSt12memory_orderS2_.exit.thread
  ret i32 %8
}